(igan_generate_data_task
GANGenerateDataTask
p1
(dp2
S'_config'
p3
(dp4
S'g_lr'
p5
F0.001
sS'd_rounds'
p6
I1
sS'gen_feature_num_units'
p7
I100
sS'dataset'
p8
S'iot'
p9
sS'vis_num_sample'
p10
I5
sS'sample_len'
p11
I1
sS'extra_checkpoint_freq'
p12
I5
sS'attr_disc_num_layers'
p13
I5
sS'num_packing'
p14
I1
sS'generate_num_test_sample'
p15
I50000
sS'generate_num_train_sample'
p16
I50000
sS'gen_attribute_num_layers'
p17
I3
sS'epoch'
p18
I400
sS'attr_disc_num_units'
p19
I200
sS'initial_state'
p20
S'random'
p21
sS'd_gp_coe'
p22
F10
sS'noise'
p23
I01
sS'run'
p24
I0
sS'disc_num_layers'
p25
I5
sS'g_attr_d_coe'
p26
F1
sS'batch_size'
p27
I100
sS'g_rounds'
p28
I1
sS'self_norm'
p29
I00
sS'attr_d_lr'
p30
F0.001
sS'gen_feature_num_layers'
p31
I1
sS'gen_attribute_num_units'
p32
I100
sS'vis_freq'
p33
I200
sS'd_lr'
p34
F0.001
sS'disc_num_units'
p35
I200
sS'aux_disc'
p36
I00
sS'epoch_checkpoint_freq'
p37
I1
sS'attr_d_gp_coe'
p38
F10
sS'feed_back'
p39
I00
ssS'_work_dir'
p40
S'../results/aux_disc-False,dataset-iot,epoch-400,epoch_checkpoint_freq-1,extra_checkpoint_freq-5,run-0,sample_len-1,self_norm-False,'
p41
sb.